target datalayout = "e-m:e-p270:32:32-p271:32:32-p272:64:64-i64:64-i128:128-f80:128-n8:16:32:64-S128"
target triple = "x86_64-pc-linux-gnu"

%struct.OSQPSolver = type { ptr, ptr, ptr, ptr }
%struct.OSQPWorkspace_ = type { ptr, ptr, ptr, ptr, ptr, ptr, ptr, ptr, ptr, ptr, ptr, ptr, ptr, ptr, ptr, ptr, ptr, ptr, ptr, ptr, ptr, ptr, ptr, ptr, ptr, ptr, double, double, double, ptr, i64, i64, i64, i64, ptr }
%struct.OSQPCodegenDefines = type { i64, i64, i64, i64, i64, i64 }
%struct.OSQPInfo = type { [32 x i8], i64, i64, double, double, double, i64, i64, double, double, double, double, double, double }

@__func__.osqp_codegen = private unnamed_addr constant [13 x i8] c"osqp_codegen\00", align 1

; Function Attrs: nounwind uwtable
define i64 @osqp_codegen(ptr noundef %0, ptr noundef %1, ptr noundef %2, ptr noundef %3) #0 {
  %5 = alloca i64, align 8
  %6 = alloca ptr, align 8
  %7 = alloca ptr, align 8
  %8 = alloca ptr, align 8
  %9 = alloca ptr, align 8
  %10 = alloca i64, align 8
  store ptr %0, ptr %6, align 8
  store ptr %1, ptr %7, align 8
  store ptr %2, ptr %8, align 8
  store ptr %3, ptr %9, align 8
  store i64 0, ptr %10, align 8
  %11 = load ptr, ptr %6, align 8
  %12 = icmp ne ptr %11, null
  br i1 %12, label %13, label %28

13:                                               ; preds = %4
  %14 = load ptr, ptr %6, align 8
  %15 = getelementptr inbounds %struct.OSQPSolver, ptr %14, i32 0, i32 3
  %16 = load ptr, ptr %15, align 8
  %17 = icmp ne ptr %16, null
  br i1 %17, label %18, label %28

18:                                               ; preds = %13
  %19 = load ptr, ptr %6, align 8
  %20 = getelementptr inbounds %struct.OSQPSolver, ptr %19, i32 0, i32 0
  %21 = load ptr, ptr %20, align 8
  %22 = icmp ne ptr %21, null
  br i1 %22, label %23, label %28

23:                                               ; preds = %18
  %24 = load ptr, ptr %6, align 8
  %25 = getelementptr inbounds %struct.OSQPSolver, ptr %24, i32 0, i32 2
  %26 = load ptr, ptr %25, align 8
  %27 = icmp ne ptr %26, null
  br i1 %27, label %30, label %28

28:                                               ; preds = %23, %18, %13, %4
  %29 = call i64 @_osqp_error(i32 noundef 6, ptr noundef @__func__.osqp_codegen)
  store i64 %29, ptr %5, align 8
  br label %153

30:                                               ; preds = %23
  %31 = load ptr, ptr %6, align 8
  %32 = getelementptr inbounds %struct.OSQPSolver, ptr %31, i32 0, i32 2
  %33 = load ptr, ptr %32, align 8
  %34 = getelementptr inbounds %struct.OSQPInfo, ptr %33, i32 0, i32 1
  %35 = load i64, ptr %34, align 8
  %36 = icmp eq i64 %35, 9
  br i1 %36, label %37, label %39

37:                                               ; preds = %30
  %38 = call i64 @_osqp_error(i32 noundef 4, ptr noundef @__func__.osqp_codegen)
  store i64 %38, ptr %5, align 8
  br label %153

39:                                               ; preds = %30
  %40 = load ptr, ptr %6, align 8
  %41 = getelementptr inbounds %struct.OSQPSolver, ptr %40, i32 0, i32 3
  %42 = load ptr, ptr %41, align 8
  %43 = getelementptr inbounds %struct.OSQPWorkspace_, ptr %42, i32 0, i32 0
  %44 = load ptr, ptr %43, align 8
  %45 = icmp ne ptr %44, null
  br i1 %45, label %46, label %53

46:                                               ; preds = %39
  %47 = load ptr, ptr %6, align 8
  %48 = getelementptr inbounds %struct.OSQPSolver, ptr %47, i32 0, i32 3
  %49 = load ptr, ptr %48, align 8
  %50 = getelementptr inbounds %struct.OSQPWorkspace_, ptr %49, i32 0, i32 1
  %51 = load ptr, ptr %50, align 8
  %52 = icmp ne ptr %51, null
  br i1 %52, label %55, label %53

53:                                               ; preds = %46, %39
  %54 = call i64 @_osqp_error(i32 noundef 6, ptr noundef @__func__.osqp_codegen)
  store i64 %54, ptr %5, align 8
  br label %153

55:                                               ; preds = %46
  %56 = load ptr, ptr %9, align 8
  %57 = icmp ne ptr %56, null
  br i1 %57, label %58, label %118

58:                                               ; preds = %55
  %59 = load ptr, ptr %9, align 8
  %60 = getelementptr inbounds %struct.OSQPCodegenDefines, ptr %59, i32 0, i32 0
  %61 = load i64, ptr %60, align 8
  %62 = icmp ne i64 %61, 1
  br i1 %62, label %63, label %68

63:                                               ; preds = %58
  %64 = load ptr, ptr %9, align 8
  %65 = getelementptr inbounds %struct.OSQPCodegenDefines, ptr %64, i32 0, i32 0
  %66 = load i64, ptr %65, align 8
  %67 = icmp ne i64 %66, 2
  br i1 %67, label %118, label %68

68:                                               ; preds = %63, %58
  %69 = load ptr, ptr %9, align 8
  %70 = getelementptr inbounds %struct.OSQPCodegenDefines, ptr %69, i32 0, i32 1
  %71 = load i64, ptr %70, align 8
  %72 = icmp ne i64 %71, 0
  br i1 %72, label %73, label %78

73:                                               ; preds = %68
  %74 = load ptr, ptr %9, align 8
  %75 = getelementptr inbounds %struct.OSQPCodegenDefines, ptr %74, i32 0, i32 1
  %76 = load i64, ptr %75, align 8
  %77 = icmp ne i64 %76, 1
  br i1 %77, label %118, label %78

78:                                               ; preds = %73, %68
  %79 = load ptr, ptr %9, align 8
  %80 = getelementptr inbounds %struct.OSQPCodegenDefines, ptr %79, i32 0, i32 2
  %81 = load i64, ptr %80, align 8
  %82 = icmp ne i64 %81, 0
  br i1 %82, label %83, label %88

83:                                               ; preds = %78
  %84 = load ptr, ptr %9, align 8
  %85 = getelementptr inbounds %struct.OSQPCodegenDefines, ptr %84, i32 0, i32 2
  %86 = load i64, ptr %85, align 8
  %87 = icmp ne i64 %86, 1
  br i1 %87, label %118, label %88

88:                                               ; preds = %83, %78
  %89 = load ptr, ptr %9, align 8
  %90 = getelementptr inbounds %struct.OSQPCodegenDefines, ptr %89, i32 0, i32 3
  %91 = load i64, ptr %90, align 8
  %92 = icmp ne i64 %91, 0
  br i1 %92, label %93, label %98

93:                                               ; preds = %88
  %94 = load ptr, ptr %9, align 8
  %95 = getelementptr inbounds %struct.OSQPCodegenDefines, ptr %94, i32 0, i32 3
  %96 = load i64, ptr %95, align 8
  %97 = icmp ne i64 %96, 1
  br i1 %97, label %118, label %98

98:                                               ; preds = %93, %88
  %99 = load ptr, ptr %9, align 8
  %100 = getelementptr inbounds %struct.OSQPCodegenDefines, ptr %99, i32 0, i32 4
  %101 = load i64, ptr %100, align 8
  %102 = icmp ne i64 %101, 0
  br i1 %102, label %103, label %108

103:                                              ; preds = %98
  %104 = load ptr, ptr %9, align 8
  %105 = getelementptr inbounds %struct.OSQPCodegenDefines, ptr %104, i32 0, i32 4
  %106 = load i64, ptr %105, align 8
  %107 = icmp ne i64 %106, 1
  br i1 %107, label %118, label %108

108:                                              ; preds = %103, %98
  %109 = load ptr, ptr %9, align 8
  %110 = getelementptr inbounds %struct.OSQPCodegenDefines, ptr %109, i32 0, i32 5
  %111 = load i64, ptr %110, align 8
  %112 = icmp ne i64 %111, 0
  br i1 %112, label %113, label %120

113:                                              ; preds = %108
  %114 = load ptr, ptr %9, align 8
  %115 = getelementptr inbounds %struct.OSQPCodegenDefines, ptr %114, i32 0, i32 5
  %116 = load i64, ptr %115, align 8
  %117 = icmp ne i64 %116, 1
  br i1 %117, label %118, label %120

118:                                              ; preds = %113, %103, %93, %83, %73, %63, %55
  %119 = call i64 @_osqp_error(i32 noundef 9, ptr noundef @__func__.osqp_codegen)
  store i64 %119, ptr %5, align 8
  br label %153

120:                                              ; preds = %113, %108
  br label %121

121:                                              ; preds = %120
  br label %122

122:                                              ; preds = %121
  br label %123

123:                                              ; preds = %122
  %124 = load ptr, ptr %7, align 8
  %125 = load ptr, ptr %8, align 8
  %126 = call i64 @codegen_inc(ptr noundef %124, ptr noundef %125)
  store i64 %126, ptr %10, align 8
  %127 = load i64, ptr %10, align 8
  %128 = icmp ne i64 %127, 0
  br i1 %128, label %137, label %129

129:                                              ; preds = %123
  %130 = load ptr, ptr %7, align 8
  %131 = load ptr, ptr %8, align 8
  %132 = load ptr, ptr %6, align 8
  %133 = load ptr, ptr %9, align 8
  %134 = getelementptr inbounds %struct.OSQPCodegenDefines, ptr %133, i32 0, i32 0
  %135 = load i64, ptr %134, align 8
  %136 = call i64 @codegen_src(ptr noundef %130, ptr noundef %131, ptr noundef %132, i64 noundef %135)
  store i64 %136, ptr %10, align 8
  br label %137

137:                                              ; preds = %129, %123
  %138 = load i64, ptr %10, align 8
  %139 = icmp ne i64 %138, 0
  br i1 %139, label %144, label %140

140:                                              ; preds = %137
  %141 = load ptr, ptr %7, align 8
  %142 = load ptr, ptr %8, align 8
  %143 = call i64 @codegen_example(ptr noundef %141, ptr noundef %142)
  store i64 %143, ptr %10, align 8
  br label %144

144:                                              ; preds = %140, %137
  %145 = load i64, ptr %10, align 8
  %146 = icmp ne i64 %145, 0
  br i1 %146, label %151, label %147

147:                                              ; preds = %144
  %148 = load ptr, ptr %7, align 8
  %149 = load ptr, ptr %9, align 8
  %150 = call i64 @codegen_defines(ptr noundef %148, ptr noundef %149)
  store i64 %150, ptr %10, align 8
  br label %151

151:                                              ; preds = %147, %144
  %152 = load i64, ptr %10, align 8
  store i64 %152, ptr %5, align 8
  br label %153

153:                                              ; preds = %151, %118, %53, %37, %28
  %154 = load i64, ptr %5, align 8
  ret i64 %154
}