; Function Attrs: nounwind uwtable
define i64 @osqp_codegen(ptr noundef %0, ptr noundef %1, ptr noundef %2, ptr noundef %3) local_unnamed_addr #0 {
  %.not = icmp eq ptr %0, null
  br i1 %.not, label %13, label %5

5:                                                ; preds = %4
  %6 = getelementptr inbounds i8, ptr %0, i64 24
  %7 = load ptr, ptr %6, align 8
  %.not46 = icmp eq ptr %7, null
  br i1 %.not46, label %13, label %8

8:                                                ; preds = %5
  %9 = load ptr, ptr %0, align 8
  %.not47 = icmp eq ptr %9, null
  br i1 %.not47, label %13, label %10

10:                                               ; preds = %8
  %11 = getelementptr inbounds i8, ptr %0, i64 16
  %12 = load ptr, ptr %11, align 8
  %.not48 = icmp eq ptr %12, null
  br i1 %.not48, label %13, label %15

13:                                               ; preds = %10, %8, %5, %4
  %14 = tail call i64 @_osqp_error(i32 noundef 6, ptr noundef nonnull @__func__.osqp_codegen) #15
  br label %.thread74

15:                                               ; preds = %10
  %16 = getelementptr inbounds i8, ptr %12, i64 32
  %17 = load i64, ptr %16, align 8
  %18 = icmp eq i64 %17, 9
  br i1 %18, label %19, label %21

19:                                               ; preds = %15
  %20 = tail call i64 @_osqp_error(i32 noundef 4, ptr noundef nonnull @__func__.osqp_codegen) #15
  br label %.thread74

21:                                               ; preds = %15
  %22 = load ptr, ptr %7, align 8
  %.not49 = icmp eq ptr %22, null
  br i1 %.not49, label %26, label %23

23:                                               ; preds = %21
  %24 = getelementptr inbounds i8, ptr %7, i64 8
  %25 = load ptr, ptr %24, align 8
  %.not50 = icmp eq ptr %25, null
  br i1 %.not50, label %26, label %28

26:                                               ; preds = %23, %21
  %27 = tail call i64 @_osqp_error(i32 noundef 6, ptr noundef nonnull @__func__.osqp_codegen) #15
  br label %.thread74

28:                                               ; preds = %23
  %.not51 = icmp eq ptr %3, null
  br i1 %.not51, label %46, label %29

29:                                               ; preds = %28
  %30 = load i64, ptr %3, align 8
  %.off = add i64 %30, -1
  %switch = icmp ult i64 %.off, 2
  br i1 %switch, label %31, label %46

31:                                               ; preds = %29
  %32 = getelementptr inbounds i8, ptr %3, i64 8
  %33 = load i64, ptr %32, align 8
  %switch67 = icmp ult i64 %33, 2
  br i1 %switch67, label %34, label %46

34:                                               ; preds = %31
  %35 = getelementptr inbounds i8, ptr %3, i64 16
  %36 = load i64, ptr %35, align 8
  %switch68 = icmp ult i64 %36, 2
  br i1 %switch68, label %37, label %46

37:                                               ; preds = %34
  %38 = getelementptr inbounds i8, ptr %3, i64 24
  %39 = load i64, ptr %38, align 8
  %switch69 = icmp ult i64 %39, 2
  br i1 %switch69, label %40, label %46

40:                                               ; preds = %37
  %41 = getelementptr inbounds i8, ptr %3, i64 32
  %42 = load i64, ptr %41, align 8
  %switch70 = icmp ult i64 %42, 2
  br i1 %switch70, label %43, label %46

43:                                               ; preds = %40
  %44 = getelementptr inbounds i8, ptr %3, i64 40
  %45 = load i64, ptr %44, align 8
  %switch71 = icmp ult i64 %45, 2
  br i1 %switch71, label %48, label %46

46:                                               ; preds = %43, %40, %37, %34, %31, %29, %28
  %47 = tail call i64 @_osqp_error(i32 noundef 9, ptr noundef nonnull @__func__.osqp_codegen) #15
  br label %.thread74

48:                                               ; preds = %43
  %49 = tail call i64 @codegen_inc(ptr noundef %1, ptr noundef %2) #15
  %.not64 = icmp eq i64 %49, 0
  br i1 %.not64, label %50, label %.thread74

50:                                               ; preds = %48
  %51 = load i64, ptr %3, align 8
  %52 = tail call i64 @codegen_src(ptr noundef %1, ptr noundef %2, ptr noundef nonnull %0, i64 noundef %51) #15
  %.not65 = icmp eq i64 %52, 0
  br i1 %.not65, label %53, label %.thread74

53:                                               ; preds = %50
  %54 = tail call i64 @codegen_example(ptr noundef %1, ptr noundef %2) #15
  %.not66 = icmp eq i64 %54, 0
  br i1 %.not66, label %55, label %.thread74

55:                                               ; preds = %53
  %56 = tail call i64 @codegen_defines(ptr noundef %1, ptr noundef nonnull %3) #15
  br label %.thread74

.thread74:                                        ; preds = %48, %50, %53, %55, %46, %26, %19, %13
  %.034 = phi i64 [ %20, %19 ], [ %47, %46 ], [ %27, %26 ], [ %14, %13 ], [ %54, %53 ], [ %56, %55 ], [ %52, %50 ], [ %49, %48 ]
  ret i64 %.034
}